; Function Attrs: mustprogress nofree norecurse nosync nounwind willreturn memory(read, inaccessiblemem: none) uwtable
define hidden noundef zeroext i1 @_ZNK4cvc58internal6String8rstrncmpERKS1_m(ptr nocapture noundef nonnull readonly align 8 dereferenceable(24) %this, ptr nocapture noundef nonnull readonly align 8 dereferenceable(24) %y, i64 noundef %n) local_unnamed_addr #4 align 2 {
entry:
  %_M_finish.i.i = getelementptr inbounds i8, ptr %this, i64 8
  %0 = load ptr, ptr %_M_finish.i.i, align 8
  %1 = load ptr, ptr %this, align 8
  %sub.ptr.lhs.cast.i.i = ptrtoint ptr %0 to i64
  %sub.ptr.rhs.cast.i.i = ptrtoint ptr %1 to i64
  %sub.ptr.sub.i.i = sub i64 %sub.ptr.lhs.cast.i.i, %sub.ptr.rhs.cast.i.i
  %sub.ptr.div.i.i = ashr exact i64 %sub.ptr.sub.i.i, 2
  %_M_finish.i.i12 = getelementptr inbounds i8, ptr %y, i64 8
  %2 = load ptr, ptr %_M_finish.i.i12, align 8
  %3 = load ptr, ptr %y, align 8
  %sub.ptr.lhs.cast.i.i13 = ptrtoint ptr %2 to i64
  %sub.ptr.rhs.cast.i.i14 = ptrtoint ptr %3 to i64
  %sub.ptr.sub.i.i15 = sub i64 %sub.ptr.lhs.cast.i.i13, %sub.ptr.rhs.cast.i.i14
  %sub.ptr.div.i.i16 = ashr exact i64 %sub.ptr.sub.i.i15, 2
  %cond13 = tail call i64 @llvm.umin.i64(i64 %sub.ptr.div.i.i, i64 %sub.ptr.div.i.i16)
  %cmp14 = icmp ult i64 %cond13, %n
  br i1 %cmp14, label %if.then, label %if.end17

if.then:                                          ; preds = %entry
  %cmp15 = icmp eq i64 %sub.ptr.div.i.i, %sub.ptr.div.i.i16
  br i1 %cmp15, label %if.end17, label %return

if.end17:                                         ; preds = %if.then, %entry
  %n.addr.0 = phi i64 [ %n, %entry ], [ %cond13, %if.then ]
  %cmp1858.not = icmp eq i64 %n.addr.0, 0
  br i1 %cmp1858.not, label %return, label %for.body.lr.ph

for.body.lr.ph:                                   ; preds = %if.end17
  %4 = getelementptr i8, ptr %1, i64 %sub.ptr.sub.i.i
  %5 = getelementptr i8, ptr %3, i64 %sub.ptr.sub.i.i15
  br label %for.body

for.body:                                         ; preds = %for.body, %for.body.lr.ph
  %i.059 = phi i64 [ 0, %for.body.lr.ph ], [ %inc, %for.body ]
  %6 = xor i64 %i.059, -1
  %add.ptr.i = getelementptr i32, ptr %4, i64 %6
  %7 = load i32, ptr %add.ptr.i, align 4
  %add.ptr.i57 = getelementptr i32, ptr %5, i64 %6
  %8 = load i32, ptr %add.ptr.i57, align 4
  %cmp27.not = icmp eq i32 %7, %8
  %inc = add nuw i64 %i.059, 1
  %exitcond.not = icmp ne i64 %inc, %n.addr.0
  %or.cond.not = select i1 %cmp27.not, i1 %exitcond.not, i1 false
  br i1 %or.cond.not, label %for.body, label %return, !llvm.loop !8

return:                                           ; preds = %for.body, %if.end17, %if.then
  %retval.0 = phi i1 [ false, %if.then ], [ true, %if.end17 ], [ %cmp27.not, %for.body ]
  ret i1 %retval.0
}